; Function Attrs: nounwind sspstrong uwtable
define internal i64 @unix_addr(i64 noundef %0) #0 {
  %2 = alloca %struct.sockaddr_un, align 2
  %3 = alloca i32, align 4
  call void @llvm.lifetime.start.p0(i64 110, ptr nonnull %2) #7
  call void @llvm.lifetime.start.p0(i64 4, ptr nonnull %3) #7
  store i32 110, ptr %3, align 4, !tbaa !35
  %4 = tail call i64 @rb_io_taint_check(i64 noundef %0) #7
  %5 = inttoptr i64 %4 to ptr
  %6 = getelementptr inbounds nuw i8, ptr %5, i64 16
  %7 = load ptr, ptr %6, align 8, !tbaa !25
  tail call void @rb_io_check_closed(ptr noundef %7) #7
  %8 = getelementptr inbounds nuw i8, ptr %7, i64 16
  %9 = load i32, ptr %8, align 8, !tbaa !44
  %10 = call i32 @getsockname(i32 noundef %9, ptr nonnull %2, ptr noundef nonnull %3) #7
  %11 = icmp slt i32 %10, 0
  br i1 %11, label %12, label %15

12:                                               ; preds = %1
  %13 = getelementptr inbounds nuw i8, ptr %7, i64 32
  %14 = load i64, ptr %13, align 8, !tbaa !36
  call void @rsock_sys_fail_path(ptr noundef nonnull @.str.14, i64 noundef %14) #8
  unreachable

15:                                               ; preds = %1
  %16 = load i32, ptr %3, align 4, !tbaa !35
  %17 = icmp ugt i32 %16, 110
  br i1 %17, label %18, label %19

18:                                               ; preds = %15
  store i32 110, ptr %3, align 4, !tbaa !35
  br label %19

19:                                               ; preds = %18, %15
  %20 = phi i32 [ 110, %18 ], [ %16, %15 ]
  %21 = call i64 @rsock_unixaddr(ptr noundef nonnull %2, i32 noundef %20) #7
  call void @llvm.lifetime.end.p0(i64 4, ptr nonnull %3) #7
  call void @llvm.lifetime.end.p0(i64 110, ptr nonnull %2) #7
  ret i64 %21
}